target datalayout = "e-m:e-p270:32:32-p271:32:32-p272:64:64-i64:64-i128:128-f80:128-n8:16:32:64-S128"
target triple = "x86_64-pc-linux-gnu"

%struct.GenContext_ = type { i8, ptr, ptr, ptr, ptr, ptr, ptr, ptr, ptr, ptr, ptr, ptr, ptr, ptr, ptr, ptr, ptr, ptr, ptr, ptr, ptr, ptr, ptr, ptr, ptr, ptr, ptr, ptr, ptr, ptr, ptr, ptr, ptr, %struct.anon.85, i32, i32, %struct.DebugContext, ptr, ptr, ptr, %struct.BEValue, i8, %union.SourceSpan, ptr, ptr, ptr, ptr }
%struct.anon.85 = type { ptr, ptr, ptr }
%struct.DebugContext = type { i16, ptr, ptr, %struct.DebugFile_, ptr, ptr, ptr, ptr }
%struct.DebugFile_ = type { i16, ptr }
%struct.BEValue = type { i8, i32, ptr, ptr, ptr }
%union.SourceSpan = type { i64 }
%struct.VHeader_ = type { i32, i32, [0 x i8] }
%struct.anon = type { i16, i8, i8, i32 }

; Function Attrs: nounwind uwtable
define internal ptr @vec_new_(i64 noundef %0, i64 noundef %1) #0 {
  %3 = alloca i64, align 8
  %4 = alloca i64, align 8
  %5 = alloca ptr, align 8
  store i64 %0, ptr %3, align 8
  store i64 %1, ptr %4, align 8
  %6 = load i64, ptr %3, align 8
  %7 = load i64, ptr %4, align 8
  %8 = mul i64 %6, %7
  %9 = add i64 %8, 8
  %10 = call ptr @calloc_arena(i64 noundef %9)
  store ptr %10, ptr %5, align 8
  %11 = load i64, ptr %4, align 8
  %12 = trunc i64 %11 to i32
  %13 = load ptr, ptr %5, align 8
  %14 = getelementptr inbounds %struct.VHeader_, ptr %13, i32 0, i32 1
  store i32 %12, ptr %14, align 4
  %15 = load ptr, ptr %5, align 8
  ret ptr %15
}

; Function Attrs: nounwind uwtable
define internal ptr @expand_(ptr noundef %0, i64 noundef %1) #0 {
  %3 = alloca ptr, align 8
  %4 = alloca i64, align 8
  %5 = alloca ptr, align 8
  %6 = alloca ptr, align 8
  %7 = alloca i64, align 8
  store ptr %0, ptr %3, align 8
  store i64 %1, ptr %4, align 8
  %8 = load ptr, ptr %3, align 8
  %9 = icmp ne ptr %8, null
  br i1 %9, label %13, label %10

10:                                               ; preds = %2
  %11 = load i64, ptr %4, align 8
  %12 = call ptr @vec_new_(i64 noundef %11, i64 noundef 8)
  store ptr %12, ptr %5, align 8
  br label %16

13:                                               ; preds = %2
  %14 = load ptr, ptr %3, align 8
  %15 = getelementptr inbounds %struct.VHeader_, ptr %14, i64 -1
  store ptr %15, ptr %5, align 8
  br label %16

16:                                               ; preds = %13, %10
  %17 = load ptr, ptr %5, align 8
  %18 = getelementptr inbounds %struct.VHeader_, ptr %17, i32 0, i32 0
  %19 = load i32, ptr %18, align 4
  %20 = load ptr, ptr %5, align 8
  %21 = getelementptr inbounds %struct.VHeader_, ptr %20, i32 0, i32 1
  %22 = load i32, ptr %21, align 4
  %23 = icmp eq i32 %19, %22
  br i1 %23, label %24, label %49

24:                                               ; preds = %16
  %25 = load i64, ptr %4, align 8
  %26 = load ptr, ptr %5, align 8
  %27 = getelementptr inbounds %struct.VHeader_, ptr %26, i32 0, i32 1
  %28 = load i32, ptr %27, align 4
  %29 = shl i32 %28, 1
  %30 = zext i32 %29 to i64
  %31 = call ptr @vec_new_(i64 noundef %25, i64 noundef %30)
  store ptr %31, ptr %6, align 8
  %32 = load i64, ptr %4, align 8
  %33 = load ptr, ptr %5, align 8
  %34 = getelementptr inbounds %struct.VHeader_, ptr %33, i32 0, i32 1
  %35 = load i32, ptr %34, align 4
  %36 = zext i32 %35 to i64
  %37 = mul i64 %32, %36
  %38 = add i64 %37, 8
  store i64 %38, ptr %7, align 8
  %39 = load ptr, ptr %6, align 8
  %40 = load ptr, ptr %5, align 8
  %41 = load i64, ptr %7, align 8
  call void @llvm.memcpy.p0.p0.i64(ptr align 4 %39, ptr align 4 %40, i64 %41, i1 false)
  %42 = load ptr, ptr %6, align 8
  store ptr %42, ptr %5, align 8
  %43 = load ptr, ptr %5, align 8
  %44 = getelementptr inbounds %struct.VHeader_, ptr %43, i32 0, i32 1
  %45 = load i32, ptr %44, align 4
  %46 = shl i32 %45, 1
  %47 = load ptr, ptr %6, align 8
  %48 = getelementptr inbounds %struct.VHeader_, ptr %47, i32 0, i32 1
  store i32 %46, ptr %48, align 4
  br label %49

49:                                               ; preds = %24, %16
  %50 = load ptr, ptr %5, align 8
  %51 = getelementptr inbounds %struct.VHeader_, ptr %50, i32 0, i32 0
  %52 = load i32, ptr %51, align 4
  %53 = add i32 %52, 1
  store i32 %53, ptr %51, align 4
  %54 = load ptr, ptr %5, align 8
  %55 = getelementptr inbounds %struct.VHeader_, ptr %54, i64 1
  ret ptr %55
}

; Function Attrs: nounwind uwtable
define dso_local void @llvm_debug_scope_push(ptr noundef %0, ptr noundef %1) #0 {
  %3 = alloca i32, align 4
  %4 = alloca ptr, align 8
  %5 = alloca ptr, align 8
  %6 = alloca ptr, align 8
  %7 = alloca ptr, align 8
  %8 = alloca ptr, align 8
  store ptr %0, ptr %6, align 8
  store ptr %1, ptr %7, align 8
  br label %9

9:                                                ; preds = %2
  %10 = load ptr, ptr %6, align 8
  %11 = getelementptr inbounds %struct.GenContext_, ptr %10, i32 0, i32 36
  %12 = getelementptr inbounds %struct.DebugContext, ptr %11, i32 0, i32 6
  %13 = load ptr, ptr %12, align 8
  %14 = call ptr @expand_(ptr noundef %13, i64 noundef 8)
  store ptr %14, ptr %8, align 8
  %15 = load ptr, ptr %8, align 8
  %16 = load ptr, ptr %6, align 8
  %17 = getelementptr inbounds %struct.GenContext_, ptr %16, i32 0, i32 36
  %18 = getelementptr inbounds %struct.DebugContext, ptr %17, i32 0, i32 6
  store ptr %15, ptr %18, align 8
  %19 = load ptr, ptr %7, align 8
  %20 = load ptr, ptr %6, align 8
  %21 = getelementptr inbounds %struct.GenContext_, ptr %20, i32 0, i32 36
  %22 = getelementptr inbounds %struct.DebugContext, ptr %21, i32 0, i32 6
  %23 = load ptr, ptr %22, align 8
  %24 = load ptr, ptr %6, align 8
  %25 = getelementptr inbounds %struct.GenContext_, ptr %24, i32 0, i32 36
  %26 = getelementptr inbounds %struct.DebugContext, ptr %25, i32 0, i32 6
  %27 = load ptr, ptr %26, align 8
  store ptr %27, ptr %4, align 8
  %28 = load ptr, ptr %4, align 8
  %29 = icmp ne ptr %28, null
  br i1 %29, label %31, label %30

30:                                               ; preds = %9
  store i32 0, ptr %3, align 4
  br label %36

31:                                               ; preds = %9
  %32 = load ptr, ptr %4, align 8
  store ptr %32, ptr %5, align 8
  %33 = load ptr, ptr %5, align 8
  %34 = getelementptr inbounds %struct.VHeader_, ptr %33, i64 -1
  %35 = load i32, ptr %34, align 4
  store i32 %35, ptr %3, align 4
  br label %36

36:                                               ; preds = %31, %30
  %37 = load i32, ptr %3, align 4
  %38 = sub i32 %37, 1
  %39 = zext i32 %38 to i64
  %40 = getelementptr inbounds ptr, ptr %23, i64 %39
  store ptr %19, ptr %40, align 8
  br label %41

41:                                               ; preds = %36
  ret void
}

; Function Attrs: nounwind uwtable
define dso_local void @llvm_debug_push_lexical_scope(ptr noundef %0, i64 %1) #0 {
  %3 = alloca i32, align 4
  %4 = alloca ptr, align 8
  %5 = alloca ptr, align 8
  %6 = alloca i32, align 4
  %7 = alloca ptr, align 8
  %8 = alloca ptr, align 8
  %9 = alloca %union.SourceSpan, align 8
  %10 = alloca ptr, align 8
  %11 = alloca ptr, align 8
  %12 = alloca i32, align 4
  %13 = alloca ptr, align 8
  %14 = alloca i32, align 4
  %15 = alloca i32, align 4
  %16 = alloca ptr, align 8
  %17 = alloca ptr, align 8
  %18 = getelementptr inbounds %union.SourceSpan, ptr %9, i32 0, i32 0
  store i64 %1, ptr %18, align 8
  store ptr %0, ptr %10, align 8
  %19 = load ptr, ptr %10, align 8
  %20 = getelementptr inbounds %struct.GenContext_, ptr %19, i32 0, i32 36
  %21 = getelementptr inbounds %struct.DebugContext, ptr %20, i32 0, i32 6
  %22 = load ptr, ptr %21, align 8
  store ptr %22, ptr %4, align 8
  %23 = load ptr, ptr %4, align 8
  %24 = icmp ne ptr %23, null
  br i1 %24, label %26, label %25

25:                                               ; preds = %2
  store i32 0, ptr %3, align 4
  br label %31

26:                                               ; preds = %2
  %27 = load ptr, ptr %4, align 8
  store ptr %27, ptr %5, align 8
  %28 = load ptr, ptr %5, align 8
  %29 = getelementptr inbounds %struct.VHeader_, ptr %28, i64 -1
  %30 = load i32, ptr %29, align 4
  store i32 %30, ptr %3, align 4
  br label %31

31:                                               ; preds = %26, %25
  %32 = load i32, ptr %3, align 4
  %33 = icmp ugt i32 %32, 0
  br i1 %33, label %34, label %65

34:                                               ; preds = %31
  %35 = load ptr, ptr %10, align 8
  %36 = getelementptr inbounds %struct.GenContext_, ptr %35, i32 0, i32 36
  %37 = getelementptr inbounds %struct.DebugContext, ptr %36, i32 0, i32 6
  %38 = load ptr, ptr %37, align 8
  store ptr %38, ptr %7, align 8
  %39 = load ptr, ptr %7, align 8
  %40 = icmp ne ptr %39, null
  br i1 %40, label %42, label %41

41:                                               ; preds = %34
  store i32 0, ptr %6, align 4
  br label %47

42:                                               ; preds = %34
  %43 = load ptr, ptr %7, align 8
  store ptr %43, ptr %8, align 8
  %44 = load ptr, ptr %8, align 8
  %45 = getelementptr inbounds %struct.VHeader_, ptr %44, i64 -1
  %46 = load i32, ptr %45, align 4
  store i32 %46, ptr %6, align 4
  br label %47

47:                                               ; preds = %42, %41
  %48 = load i32, ptr %6, align 4
  store i32 %48, ptr %12, align 4
  %49 = load i32, ptr %12, align 4
  %50 = icmp ne i32 %49, 0
  br i1 %50, label %51, label %61

51:                                               ; preds = %47
  %52 = load ptr, ptr %10, align 8
  %53 = getelementptr inbounds %struct.GenContext_, ptr %52, i32 0, i32 36
  %54 = getelementptr inbounds %struct.DebugContext, ptr %53, i32 0, i32 6
  %55 = load ptr, ptr %54, align 8
  %56 = load i32, ptr %12, align 4
  %57 = sub i32 %56, 1
  %58 = zext i32 %57 to i64
  %59 = getelementptr inbounds ptr, ptr %55, i64 %58
  %60 = load ptr, ptr %59, align 8
  br label %62

61:                                               ; preds = %47
  br label %62

62:                                               ; preds = %61, %51
  %63 = phi ptr [ %60, %51 ], [ null, %61 ]
  store ptr %63, ptr %13, align 8
  %64 = load ptr, ptr %13, align 8
  store ptr %64, ptr %11, align 8
  br label %70

65:                                               ; preds = %31
  %66 = load ptr, ptr %10, align 8
  %67 = getelementptr inbounds %struct.GenContext_, ptr %66, i32 0, i32 36
  %68 = getelementptr inbounds %struct.DebugContext, ptr %67, i32 0, i32 4
  %69 = load ptr, ptr %68, align 8
  store ptr %69, ptr %11, align 8
  br label %70

70:                                               ; preds = %65, %62
  %71 = getelementptr inbounds %struct.anon, ptr %9, i32 0, i32 3
  %72 = load i32, ptr %71, align 4
  store i32 %72, ptr %14, align 4
  %73 = getelementptr inbounds %struct.anon, ptr %9, i32 0, i32 2
  %74 = load i8, ptr %73, align 1
  %75 = zext i8 %74 to i32
  store i32 %75, ptr %15, align 4
  %76 = load ptr, ptr %10, align 8
  %77 = getelementptr inbounds %struct.GenContext_, ptr %76, i32 0, i32 36
  %78 = getelementptr inbounds %struct.DebugContext, ptr %77, i32 0, i32 3
  %79 = getelementptr inbounds %struct.DebugFile_, ptr %78, i32 0, i32 1
  %80 = load ptr, ptr %79, align 8
  store ptr %80, ptr %16, align 8
  %81 = getelementptr inbounds %struct.anon, ptr %9, i32 0, i32 0
  %82 = load i16, ptr %81, align 8
  %83 = zext i16 %82 to i32
  %84 = load ptr, ptr %10, align 8
  %85 = getelementptr inbounds %struct.GenContext_, ptr %84, i32 0, i32 36
  %86 = getelementptr inbounds %struct.DebugContext, ptr %85, i32 0, i32 3
  %87 = getelementptr inbounds %struct.DebugFile_, ptr %86, i32 0, i32 0
  %88 = load i16, ptr %87, align 8
  %89 = zext i16 %88 to i32
  %90 = icmp ne i32 %83, %89
  br i1 %90, label %91, label %96

91:                                               ; preds = %70
  %92 = load ptr, ptr %10, align 8
  %93 = getelementptr inbounds %struct.anon, ptr %9, i32 0, i32 0
  %94 = load i16, ptr %93, align 8
  %95 = call ptr @llvm_get_debug_file(ptr noundef %92, i16 noundef zeroext %94)
  store ptr %95, ptr %16, align 8
  br label %96

96:                                               ; preds = %91, %70
  %97 = load ptr, ptr %10, align 8
  %98 = getelementptr inbounds %struct.GenContext_, ptr %97, i32 0, i32 36
  %99 = getelementptr inbounds %struct.DebugContext, ptr %98, i32 0, i32 1
  %100 = load ptr, ptr %99, align 8
  %101 = load ptr, ptr %11, align 8
  %102 = load ptr, ptr %16, align 8
  %103 = load i32, ptr %14, align 4
  %104 = icmp ne i32 %103, 0
  br i1 %104, label %105, label %107

105:                                              ; preds = %96
  %106 = load i32, ptr %14, align 4
  br label %108

107:                                              ; preds = %96
  br label %108

108:                                              ; preds = %107, %105
  %109 = phi i32 [ %106, %105 ], [ 1, %107 ]
  %110 = load i32, ptr %15, align 4
  %111 = icmp ne i32 %110, 0
  br i1 %111, label %112, label %114

112:                                              ; preds = %108
  %113 = load i32, ptr %15, align 4
  br label %115

114:                                              ; preds = %108
  br label %115

115:                                              ; preds = %114, %112
  %116 = phi i32 [ %113, %112 ], [ 1, %114 ]
  %117 = call ptr @LLVMDIBuilderCreateLexicalBlock(ptr noundef %100, ptr noundef %101, ptr noundef %102, i32 noundef %109, i32 noundef %116)
  store ptr %117, ptr %17, align 8
  %118 = load ptr, ptr %10, align 8
  %119 = load ptr, ptr %17, align 8
  call void @llvm_debug_scope_push(ptr noundef %118, ptr noundef %119)
  ret void
}