; Function Attrs: nounwind uwtable
define dso_local void @llvm_debug_push_lexical_scope(ptr noundef %0, i64 %1) local_unnamed_addr #0 {
  %.sroa.0.0.extract.trunc = trunc i64 %1 to i16
  %3 = getelementptr inbounds i8, ptr %0, i64 352
  %4 = load ptr, ptr %3, align 8
  %.not = icmp eq ptr %4, null
  br i1 %.not, label %.critedge, label %5

5:                                                ; preds = %2
  %6 = getelementptr inbounds i8, ptr %4, i64 -8
  %7 = load i32, ptr %6, align 4
  %8 = icmp eq i32 %7, 0
  br i1 %8, label %.critedge, label %9

9:                                                ; preds = %5
  %10 = add i32 %7, -1
  %11 = zext i32 %10 to i64
  %12 = getelementptr inbounds ptr, ptr %4, i64 %11
  br label %14

.critedge:                                        ; preds = %2, %5
  %13 = getelementptr inbounds i8, ptr %0, i64 336
  br label %14

14:                                               ; preds = %9, %.critedge
  %.030.in = phi ptr [ %13, %.critedge ], [ %12, %9 ]
  %.030 = load ptr, ptr %.030.in, align 8
  %15 = getelementptr inbounds i8, ptr %0, i64 320
  %16 = getelementptr inbounds i8, ptr %0, i64 328
  %17 = load ptr, ptr %16, align 8
  %18 = load i16, ptr %15, align 8
  %.not36 = icmp eq i16 %18, %.sroa.0.0.extract.trunc
  br i1 %.not36, label %21, label %19

19:                                               ; preds = %14
  %20 = tail call ptr @llvm_get_debug_file(ptr noundef nonnull %0, i16 noundef zeroext %.sroa.0.0.extract.trunc) #8
  br label %21

21:                                               ; preds = %19, %14
  %.028 = phi ptr [ %20, %19 ], [ %17, %14 ]
  %22 = trunc i64 %1 to i32
  %23 = lshr i32 %22, 24
  %.sroa.4.0.extract.shift = lshr i64 %1, 32
  %.sroa.4.0.extract.trunc = trunc nuw i64 %.sroa.4.0.extract.shift to i32
  %24 = getelementptr inbounds i8, ptr %0, i64 304
  %25 = load ptr, ptr %24, align 8
  %26 = tail call i32 @llvm.umax.i32(i32 %.sroa.4.0.extract.trunc, i32 1)
  %.not38 = icmp ult i32 %22, 16777216
  %27 = select i1 %.not38, i32 1, i32 %23
  %28 = tail call ptr @LLVMDIBuilderCreateLexicalBlock(ptr noundef %25, ptr noundef %.030, ptr noundef %.028, i32 noundef %26, i32 noundef %27) #8
  %29 = load ptr, ptr %3, align 8
  %.not.i.i = icmp eq ptr %29, null
  br i1 %.not.i.i, label %30, label %33

30:                                               ; preds = %21
  %31 = tail call ptr @calloc_arena(i64 noundef 72) #8
  %32 = getelementptr inbounds i8, ptr %31, i64 4
  store i32 8, ptr %32, align 4
  br label %35

33:                                               ; preds = %21
  %34 = getelementptr inbounds i8, ptr %29, i64 -8
  %.phi.trans.insert.i.i = getelementptr inbounds i8, ptr %29, i64 -4
  %.pre.i.i = load i32, ptr %.phi.trans.insert.i.i, align 4
  br label %35

35:                                               ; preds = %33, %30
  %36 = phi i32 [ %.pre.i.i, %33 ], [ 8, %30 ]
  %.0.i.i = phi ptr [ %34, %33 ], [ %31, %30 ]
  %37 = load i32, ptr %.0.i.i, align 4
  %38 = icmp eq i32 %37, %36
  br i1 %38, label %39, label %llvm_debug_scope_push.exit

39:                                               ; preds = %35
  %40 = getelementptr inbounds i8, ptr %.0.i.i, i64 4
  %41 = shl i32 %36, 1
  %42 = zext i32 %41 to i64
  %43 = shl nuw nsw i64 %42, 3
  %44 = or disjoint i64 %43, 8
  %45 = tail call ptr @calloc_arena(i64 noundef %44) #8
  %46 = getelementptr inbounds i8, ptr %45, i64 4
  store i32 %41, ptr %46, align 4
  %47 = load i32, ptr %40, align 4
  %48 = zext i32 %47 to i64
  %49 = shl nuw nsw i64 %48, 3
  %50 = add nuw nsw i64 %49, 8
  tail call void @llvm.memcpy.p0.p0.i64(ptr noundef nonnull align 4 dereferenceable(1) %45, ptr noundef nonnull align 4 dereferenceable(1) %.0.i.i, i64 %50, i1 false)
  %51 = load i32, ptr %46, align 4
  %52 = shl i32 %51, 1
  store i32 %52, ptr %46, align 4
  %.pre18.i.i = load i32, ptr %45, align 4
  br label %llvm_debug_scope_push.exit

llvm_debug_scope_push.exit:                       ; preds = %35, %39
  %53 = phi i32 [ %.pre18.i.i, %39 ], [ %37, %35 ]
  %.1.i.i = phi ptr [ %45, %39 ], [ %.0.i.i, %35 ]
  %54 = add i32 %53, 1
  store i32 %54, ptr %.1.i.i, align 4
  %55 = getelementptr inbounds i8, ptr %.1.i.i, i64 8
  store ptr %55, ptr %3, align 8
  %56 = load i32, ptr %.1.i.i, align 4
  %57 = add i32 %56, -1
  %58 = zext i32 %57 to i64
  %59 = getelementptr inbounds ptr, ptr %55, i64 %58
  store ptr %28, ptr %59, align 8
  ret void
}